target datalayout = "e-m:e-p270:32:32-p271:32:32-p272:64:64-i64:64-i128:128-f80:128-n8:16:32:64-S128"
target triple = "x86_64-pc-linux-gnu"

%"class.cv::ppf_match_3d::Pose3D" = type { ptr, double, double, i64, i64, %"class.cv::Matx.0", double, %"class.cv::Vec", %"class.cv::Vec.2" }
%"class.cv::Matx.0" = type { [16 x double] }
%"class.cv::Vec" = type { %"class.cv::Matx.1" }
%"class.cv::Matx.1" = type { [3 x double] }
%"class.cv::Vec.2" = type { %"class.cv::Matx.3" }
%"class.cv::Matx.3" = type { [4 x double] }
%"struct.cv::Ptr" = type { %"class.std::shared_ptr" }
%"class.std::shared_ptr" = type { %"class.std::__shared_ptr" }
%"class.std::__shared_ptr" = type { ptr, %"class.std::__shared_count" }
%"class.std::__shared_count" = type { ptr }
%"class.cv::ppf_match_3d::PoseCluster3D" = type <{ ptr, %"class.std::vector", i64, i32, [4 x i8] }>
%"class.std::vector" = type { %"struct.std::_Vector_base" }
%"struct.std::_Vector_base" = type { %"struct.std::_Vector_base<cv::Ptr<cv::ppf_match_3d::Pose3D>, std::allocator<cv::Ptr<cv::ppf_match_3d::Pose3D>>>::_Vector_impl" }
%"struct.std::_Vector_base<cv::Ptr<cv::ppf_match_3d::Pose3D>, std::allocator<cv::Ptr<cv::ppf_match_3d::Pose3D>>>::_Vector_impl" = type { %"struct.std::_Vector_base<cv::Ptr<cv::ppf_match_3d::Pose3D>, std::allocator<cv::Ptr<cv::ppf_match_3d::Pose3D>>>::_Vector_impl_data" }
%"struct.std::_Vector_base<cv::Ptr<cv::ppf_match_3d::Pose3D>, std::allocator<cv::Ptr<cv::ppf_match_3d::Pose3D>>>::_Vector_impl_data" = type { ptr, ptr, ptr }

; Function Attrs: mustprogress nounwind uwtable
define linkonce_odr hidden noundef ptr @_ZNKSt12__shared_ptrIN2cv12ppf_match_3d6Pose3DELN9__gnu_cxx12_Lock_policyE2EE3getEv(ptr noundef nonnull align 8 dereferenceable(16) %0) #12 comdat align 2 {
  %2 = alloca ptr, align 8
  store ptr %0, ptr %2, align 8, !tbaa !43
  %3 = load ptr, ptr %2, align 8
  %4 = getelementptr inbounds nuw %"class.std::__shared_ptr", ptr %3, i32 0, i32 0
  %5 = load ptr, ptr %4, align 8, !tbaa !163
  ret ptr %5
}

; Function Attrs: mustprogress uwtable
define noundef i32 @_ZN2cv12ppf_match_3d6Pose3D9writePoseEP8_IO_FILE(ptr noundef nonnull align 8 dereferenceable(232) %0, ptr noundef %1) #4 align 2 {
  %3 = alloca ptr, align 8
  %4 = alloca ptr, align 8
  %5 = alloca i32, align 4
  store ptr %0, ptr %3, align 8, !tbaa !3
  store ptr %1, ptr %4, align 8, !tbaa !48
  %6 = load ptr, ptr %3, align 8
  call void @llvm.lifetime.start.p0(i64 4, ptr %5) #3
  store i32 7673, ptr %5, align 4, !tbaa !22
  %7 = load ptr, ptr %4, align 8, !tbaa !48
  %8 = call i64 @fwrite(ptr noundef %5, i64 noundef 4, i64 noundef 1, ptr noundef %7)
  %9 = getelementptr inbounds nuw %"class.cv::ppf_match_3d::Pose3D", ptr %6, i32 0, i32 6
  %10 = load ptr, ptr %4, align 8, !tbaa !48
  %11 = call i64 @fwrite(ptr noundef %9, i64 noundef 8, i64 noundef 1, ptr noundef %10)
  %12 = getelementptr inbounds nuw %"class.cv::ppf_match_3d::Pose3D", ptr %6, i32 0, i32 4
  %13 = load ptr, ptr %4, align 8, !tbaa !48
  %14 = call i64 @fwrite(ptr noundef %12, i64 noundef 4, i64 noundef 1, ptr noundef %13)
  %15 = getelementptr inbounds nuw %"class.cv::ppf_match_3d::Pose3D", ptr %6, i32 0, i32 3
  %16 = load ptr, ptr %4, align 8, !tbaa !48
  %17 = call i64 @fwrite(ptr noundef %15, i64 noundef 4, i64 noundef 1, ptr noundef %16)
  %18 = getelementptr inbounds nuw %"class.cv::ppf_match_3d::Pose3D", ptr %6, i32 0, i32 5
  %19 = getelementptr inbounds nuw %"class.cv::Matx.0", ptr %18, i32 0, i32 0
  %20 = getelementptr inbounds [16 x double], ptr %19, i64 0, i64 0
  %21 = load ptr, ptr %4, align 8, !tbaa !48
  %22 = call i64 @fwrite(ptr noundef %20, i64 noundef 128, i64 noundef 1, ptr noundef %21)
  %23 = getelementptr inbounds nuw %"class.cv::ppf_match_3d::Pose3D", ptr %6, i32 0, i32 7
  %24 = getelementptr inbounds nuw %"class.cv::Matx.1", ptr %23, i32 0, i32 0
  %25 = getelementptr inbounds [3 x double], ptr %24, i64 0, i64 0
  %26 = load ptr, ptr %4, align 8, !tbaa !48
  %27 = call i64 @fwrite(ptr noundef %25, i64 noundef 24, i64 noundef 1, ptr noundef %26)
  %28 = getelementptr inbounds nuw %"class.cv::ppf_match_3d::Pose3D", ptr %6, i32 0, i32 8
  %29 = getelementptr inbounds nuw %"class.cv::Matx.3", ptr %28, i32 0, i32 0
  %30 = getelementptr inbounds [4 x double], ptr %29, i64 0, i64 0
  %31 = load ptr, ptr %4, align 8, !tbaa !48
  %32 = call i64 @fwrite(ptr noundef %30, i64 noundef 32, i64 noundef 1, ptr noundef %31)
  %33 = getelementptr inbounds nuw %"class.cv::ppf_match_3d::Pose3D", ptr %6, i32 0, i32 2
  %34 = load ptr, ptr %4, align 8, !tbaa !48
  %35 = call i64 @fwrite(ptr noundef %33, i64 noundef 8, i64 noundef 1, ptr noundef %34)
  call void @llvm.lifetime.end.p0(i64 4, ptr %5) #3
  ret i32 0
}

; Function Attrs: mustprogress nounwind uwtable
define linkonce_odr hidden noundef ptr @_ZNK2cv3PtrINS_12ppf_match_3d6Pose3DEEptEv(ptr noundef nonnull align 8 dereferenceable(16) %0) #12 comdat align 2 {
  %2 = alloca ptr, align 8
  store ptr %0, ptr %2, align 8, !tbaa !41
  %3 = load ptr, ptr %2, align 8
  %4 = call noundef ptr @_ZNKSt12__shared_ptrIN2cv12ppf_match_3d6Pose3DELN9__gnu_cxx12_Lock_policyE2EE3getEv(ptr noundef nonnull align 8 dereferenceable(16) %3) #3
  ret ptr %4
}

; Function Attrs: mustprogress nounwind uwtable
define linkonce_odr hidden noundef nonnull align 8 dereferenceable(16) ptr @_ZNSt6vectorIN2cv3PtrINS0_12ppf_match_3d6Pose3DEEESaIS4_EEixEm(ptr noundef nonnull align 8 dereferenceable(24) %0, i64 noundef %1) #12 comdat align 2 {
  %3 = alloca ptr, align 8
  %4 = alloca i64, align 8
  store ptr %0, ptr %3, align 8, !tbaa !60
  store i64 %1, ptr %4, align 8, !tbaa !37
  %5 = load ptr, ptr %3, align 8
  %6 = getelementptr inbounds nuw %"struct.std::_Vector_base", ptr %5, i32 0, i32 0
  %7 = getelementptr inbounds nuw %"struct.std::_Vector_base<cv::Ptr<cv::ppf_match_3d::Pose3D>, std::allocator<cv::Ptr<cv::ppf_match_3d::Pose3D>>>::_Vector_impl_data", ptr %6, i32 0, i32 0
  %8 = load ptr, ptr %7, align 8, !tbaa !65
  %9 = load i64, ptr %4, align 8, !tbaa !37
  %10 = getelementptr inbounds nuw %"struct.cv::Ptr", ptr %8, i64 %9
  ret ptr %10
}

; Function Attrs: mustprogress nounwind uwtable
define linkonce_odr hidden noundef i64 @_ZNKSt6vectorIN2cv3PtrINS0_12ppf_match_3d6Pose3DEEESaIS4_EE4sizeEv(ptr noundef nonnull align 8 dereferenceable(24) %0) #12 comdat align 2 {
  %2 = alloca ptr, align 8
  store ptr %0, ptr %2, align 8, !tbaa !60
  %3 = load ptr, ptr %2, align 8
  %4 = getelementptr inbounds nuw %"struct.std::_Vector_base", ptr %3, i32 0, i32 0
  %5 = getelementptr inbounds nuw %"struct.std::_Vector_base<cv::Ptr<cv::ppf_match_3d::Pose3D>, std::allocator<cv::Ptr<cv::ppf_match_3d::Pose3D>>>::_Vector_impl_data", ptr %4, i32 0, i32 1
  %6 = load ptr, ptr %5, align 8, !tbaa !62
  %7 = getelementptr inbounds nuw %"struct.std::_Vector_base", ptr %3, i32 0, i32 0
  %8 = getelementptr inbounds nuw %"struct.std::_Vector_base<cv::Ptr<cv::ppf_match_3d::Pose3D>, std::allocator<cv::Ptr<cv::ppf_match_3d::Pose3D>>>::_Vector_impl_data", ptr %7, i32 0, i32 0
  %9 = load ptr, ptr %8, align 8, !tbaa !65
  %10 = ptrtoint ptr %6 to i64
  %11 = ptrtoint ptr %9 to i64
  %12 = sub i64 %10, %11
  %13 = sdiv exact i64 %12, 16
  ret i64 %13
}

; Function Attrs: mustprogress uwtable
define noundef i32 @_ZN2cv12ppf_match_3d13PoseCluster3D16writePoseClusterEP8_IO_FILE(ptr noundef nonnull align 8 dereferenceable(44) %0, ptr noundef %1) #4 align 2 {
  %3 = alloca ptr, align 8
  %4 = alloca ptr, align 8
  %5 = alloca i32, align 4
  %6 = alloca i32, align 4
  %7 = alloca i32, align 4
  store ptr %0, ptr %3, align 8, !tbaa !52
  store ptr %1, ptr %4, align 8, !tbaa !48
  %8 = load ptr, ptr %3, align 8
  call void @llvm.lifetime.start.p0(i64 4, ptr %5) #3
  store i32 8462597, ptr %5, align 4, !tbaa !22
  %9 = load ptr, ptr %4, align 8, !tbaa !48
  %10 = call i64 @fwrite(ptr noundef %5, i64 noundef 4, i64 noundef 1, ptr noundef %9)
  %11 = getelementptr inbounds nuw %"class.cv::ppf_match_3d::PoseCluster3D", ptr %8, i32 0, i32 3
  %12 = load ptr, ptr %4, align 8, !tbaa !48
  %13 = call i64 @fwrite(ptr noundef %11, i64 noundef 4, i64 noundef 1, ptr noundef %12)
  %14 = getelementptr inbounds nuw %"class.cv::ppf_match_3d::PoseCluster3D", ptr %8, i32 0, i32 2
  %15 = load ptr, ptr %4, align 8, !tbaa !48
  %16 = call i64 @fwrite(ptr noundef %14, i64 noundef 4, i64 noundef 1, ptr noundef %15)
  call void @llvm.lifetime.start.p0(i64 4, ptr %6) #3
  %17 = getelementptr inbounds nuw %"class.cv::ppf_match_3d::PoseCluster3D", ptr %8, i32 0, i32 1
  %18 = call noundef i64 @_ZNKSt6vectorIN2cv3PtrINS0_12ppf_match_3d6Pose3DEEESaIS4_EE4sizeEv(ptr noundef nonnull align 8 dereferenceable(24) %17) #3
  %19 = trunc i64 %18 to i32
  store i32 %19, ptr %6, align 4, !tbaa !22
  %20 = load ptr, ptr %4, align 8, !tbaa !48
  %21 = call i64 @fwrite(ptr noundef %6, i64 noundef 4, i64 noundef 1, ptr noundef %20)
  call void @llvm.lifetime.start.p0(i64 4, ptr %7) #3
  store i32 0, ptr %7, align 4, !tbaa !22
  br label %22

22:                                               ; preds = %35, %2
  %23 = load i32, ptr %7, align 4, !tbaa !22
  %24 = load i32, ptr %6, align 4, !tbaa !22
  %25 = icmp slt i32 %23, %24
  br i1 %25, label %27, label %26

26:                                               ; preds = %22
  call void @llvm.lifetime.end.p0(i64 4, ptr %7) #3
  br label %38

27:                                               ; preds = %22
  %28 = getelementptr inbounds nuw %"class.cv::ppf_match_3d::PoseCluster3D", ptr %8, i32 0, i32 1
  %29 = load i32, ptr %7, align 4, !tbaa !22
  %30 = sext i32 %29 to i64
  %31 = call noundef nonnull align 8 dereferenceable(16) ptr @_ZNSt6vectorIN2cv3PtrINS0_12ppf_match_3d6Pose3DEEESaIS4_EEixEm(ptr noundef nonnull align 8 dereferenceable(24) %28, i64 noundef %30) #3
  %32 = call noundef ptr @_ZNK2cv3PtrINS_12ppf_match_3d6Pose3DEEptEv(ptr noundef nonnull align 8 dereferenceable(16) %31) #3
  %33 = load ptr, ptr %4, align 8, !tbaa !48
  %34 = call noundef i32 @_ZN2cv12ppf_match_3d6Pose3D9writePoseEP8_IO_FILE(ptr noundef nonnull align 8 dereferenceable(232) %32, ptr noundef %33)
  br label %35

35:                                               ; preds = %27
  %36 = load i32, ptr %7, align 4, !tbaa !22
  %37 = add nsw i32 %36, 1
  store i32 %37, ptr %7, align 4, !tbaa !22
  br label %22, !llvm.loop !64

38:                                               ; preds = %26
  call void @llvm.lifetime.end.p0(i64 4, ptr %6) #3
  call void @llvm.lifetime.end.p0(i64 4, ptr %5) #3
  ret i32 0
}