; Function Attrs: mustprogress nofree nounwind uwtable
define noundef i32 @_ZN2cv12ppf_match_3d13PoseCluster3D16writePoseClusterEP8_IO_FILE(ptr noundef nonnull align 8 captures(none) dereferenceable(44) %0, ptr noundef captures(none) %1) local_unnamed_addr #13 align 2 {
  %3 = alloca i32, align 4
  %4 = alloca i32, align 4
  %5 = alloca i32, align 4
  call void @llvm.lifetime.start.p0(i64 4, ptr nonnull %4) #26
  store i32 8462597, ptr %4, align 4, !tbaa !11
  %6 = call i64 @fwrite(ptr noundef nonnull %4, i64 noundef 4, i64 noundef 1, ptr noundef %1)
  %7 = getelementptr inbounds nuw i8, ptr %0, i64 40
  %8 = tail call i64 @fwrite(ptr noundef nonnull %7, i64 noundef 4, i64 noundef 1, ptr noundef %1)
  %9 = getelementptr inbounds nuw i8, ptr %0, i64 32
  %10 = tail call i64 @fwrite(ptr noundef nonnull %9, i64 noundef 4, i64 noundef 1, ptr noundef %1)
  call void @llvm.lifetime.start.p0(i64 4, ptr nonnull %5) #26
  %11 = getelementptr inbounds nuw i8, ptr %0, i64 8
  %12 = getelementptr inbounds nuw i8, ptr %0, i64 16
  %13 = load ptr, ptr %12, align 8, !tbaa !117
  %14 = load ptr, ptr %11, align 8, !tbaa !126
  %15 = ptrtoint ptr %13 to i64
  %16 = ptrtoint ptr %14 to i64
  %17 = sub i64 %15, %16
  %18 = lshr exact i64 %17, 4
  %19 = trunc i64 %18 to i32
  store i32 %19, ptr %5, align 4, !tbaa !11
  %20 = call i64 @fwrite(ptr noundef nonnull %5, i64 noundef 4, i64 noundef 1, ptr noundef %1)
  %21 = load i32, ptr %5, align 4, !tbaa !11
  %22 = icmp sgt i32 %21, 0
  br i1 %22, label %.lr.ph.preheader, label %._crit_edge

.lr.ph.preheader:                                 ; preds = %2
  %wide.trip.count = zext nneg i32 %21 to i64
  br label %.lr.ph

._crit_edge:                                      ; preds = %.lr.ph, %2
  call void @llvm.lifetime.end.p0(i64 4, ptr nonnull %5) #26
  call void @llvm.lifetime.end.p0(i64 4, ptr nonnull %4) #26
  ret i32 0

.lr.ph:                                           ; preds = %.lr.ph.preheader, %.lr.ph
  %indvars.iv = phi i64 [ 0, %.lr.ph.preheader ], [ %indvars.iv.next, %.lr.ph ]
  %23 = load ptr, ptr %11, align 8, !tbaa !126
  %24 = getelementptr inbounds nuw %"struct.cv::Ptr", ptr %23, i64 %indvars.iv
  %25 = load ptr, ptr %24, align 8, !tbaa !74
  call void @llvm.lifetime.start.p0(i64 4, ptr nonnull %3) #26
  store i32 7673, ptr %3, align 4, !tbaa !11
  %26 = call i64 @fwrite(ptr noundef nonnull %3, i64 noundef 4, i64 noundef 1, ptr noundef %1)
  %27 = getelementptr inbounds nuw i8, ptr %25, i64 168
  %28 = tail call i64 @fwrite(ptr noundef nonnull %27, i64 noundef 8, i64 noundef 1, ptr noundef %1)
  %29 = getelementptr inbounds nuw i8, ptr %25, i64 32
  %30 = tail call i64 @fwrite(ptr noundef nonnull %29, i64 noundef 4, i64 noundef 1, ptr noundef %1)
  %31 = getelementptr inbounds nuw i8, ptr %25, i64 24
  %32 = tail call i64 @fwrite(ptr noundef nonnull %31, i64 noundef 4, i64 noundef 1, ptr noundef %1)
  %33 = getelementptr inbounds nuw i8, ptr %25, i64 40
  %34 = tail call i64 @fwrite(ptr noundef nonnull %33, i64 noundef 128, i64 noundef 1, ptr noundef %1)
  %35 = getelementptr inbounds nuw i8, ptr %25, i64 176
  %36 = tail call i64 @fwrite(ptr noundef nonnull %35, i64 noundef 24, i64 noundef 1, ptr noundef %1)
  %37 = getelementptr inbounds nuw i8, ptr %25, i64 200
  %38 = tail call i64 @fwrite(ptr noundef nonnull %37, i64 noundef 32, i64 noundef 1, ptr noundef %1)
  %39 = getelementptr inbounds nuw i8, ptr %25, i64 16
  %40 = tail call i64 @fwrite(ptr noundef nonnull %39, i64 noundef 8, i64 noundef 1, ptr noundef %1)
  call void @llvm.lifetime.end.p0(i64 4, ptr nonnull %3) #26
  %indvars.iv.next = add nuw nsw i64 %indvars.iv, 1
  %exitcond.not = icmp eq i64 %indvars.iv.next, %wide.trip.count
  br i1 %exitcond.not, label %._crit_edge, label %.lr.ph, !llvm.loop !127
}